target datalayout = "e-m:e-p270:32:32-p271:32:32-p272:64:64-i64:64-i128:128-f80:128-n8:16:32:64-S128"
target triple = "x86_64-pc-linux-gnu"

%"class.cv::Rect_" = type { i32, i32, i32, i32 }
%"class.cv::Mat" = type { i32, i32, i32, i32, ptr, ptr, ptr, ptr, ptr, ptr, %"struct.cv::MatSize", %"struct.cv::MatStep" }
%"struct.cv::MatSize" = type { ptr }
%"struct.cv::MatStep" = type { ptr, [2 x i64] }
%"class.cv::ParallelLoopBody" = type { ptr }
%"struct.cv::ximgproc::DisparityWLSFilterImpl::ComputeDiscontinuityAwareLRC_ParBody" = type { %"class.cv::ParallelLoopBody", ptr, ptr, ptr, ptr, ptr, ptr, %"class.cv::Rect_", %"class.cv::Rect_", i32, i32 }

@_ZTVN2cv16ParallelLoopBodyE = available_externally unnamed_addr constant { [5 x ptr] } { [5 x ptr] [ptr null, ptr @_ZTIN2cv16ParallelLoopBodyE, ptr @_ZN2cv16ParallelLoopBodyD1Ev, ptr @_ZN2cv16ParallelLoopBodyD0Ev, ptr @__cxa_pure_virtual] }, align 8

; Function Attrs: inlinehint mustprogress nounwind uwtable
define linkonce_odr hidden void @_ZN2cv16ParallelLoopBodyC2Ev(ptr noundef nonnull align 8 dereferenceable(8) %0) unnamed_addr #6 comdat align 2 {
  %2 = alloca ptr, align 8
  store ptr %0, ptr %2, align 8, !tbaa !129
  %3 = load ptr, ptr %2, align 8
  store ptr getelementptr inbounds inrange(-16, 24) ({ [5 x ptr] }, ptr @_ZTVN2cv16ParallelLoopBodyE, i32 0, i32 0, i32 2), ptr %3, align 8, !tbaa !73
  ret void
}

; Function Attrs: mustprogress nounwind uwtable
define hidden void @_ZN2cv8ximgproc22DisparityWLSFilterImpl36ComputeDiscontinuityAwareLRC_ParBodyC2ERS1_RNS_3MatES5_S5_S5_S5_NS_5Rect_IiEES7_i(ptr noundef nonnull align 8 dereferenceable(96) %0, ptr noundef nonnull align 8 dereferenceable(196) %1, ptr noundef nonnull align 8 dereferenceable(96) %2, ptr noundef nonnull align 8 dereferenceable(96) %3, ptr noundef nonnull align 8 dereferenceable(96) %4, ptr noundef nonnull align 8 dereferenceable(96) %5, ptr noundef nonnull align 8 dereferenceable(96) %6, ptr noundef byval(%"class.cv::Rect_") align 8 %7, ptr noundef byval(%"class.cv::Rect_") align 8 %8, i32 noundef %9) unnamed_addr #8 align 2 {
  %11 = alloca ptr, align 8
  %12 = alloca ptr, align 8
  %13 = alloca ptr, align 8
  %14 = alloca ptr, align 8
  %15 = alloca ptr, align 8
  %16 = alloca ptr, align 8
  %17 = alloca ptr, align 8
  %18 = alloca i32, align 4
  store ptr %0, ptr %11, align 8, !tbaa !117
  store ptr %1, ptr %12, align 8, !tbaa !3
  store ptr %2, ptr %13, align 8, !tbaa !50
  store ptr %3, ptr %14, align 8, !tbaa !50
  store ptr %4, ptr %15, align 8, !tbaa !50
  store ptr %5, ptr %16, align 8, !tbaa !50
  store ptr %6, ptr %17, align 8, !tbaa !50
  store i32 %9, ptr %18, align 4, !tbaa !12
  %19 = load ptr, ptr %11, align 8
  call void @_ZN2cv16ParallelLoopBodyC2Ev(ptr noundef nonnull align 8 dereferenceable(8) %19) #3
  store ptr getelementptr inbounds inrange(-16, 24) ({ [5 x ptr] }, ptr @_ZTVN2cv8ximgproc22DisparityWLSFilterImpl36ComputeDiscontinuityAwareLRC_ParBodyE, i32 0, i32 0, i32 2), ptr %19, align 8, !tbaa !73
  %20 = getelementptr inbounds nuw %"struct.cv::ximgproc::DisparityWLSFilterImpl::ComputeDiscontinuityAwareLRC_ParBody", ptr %19, i32 0, i32 1
  %21 = load ptr, ptr %12, align 8, !tbaa !3
  store ptr %21, ptr %20, align 8, !tbaa !119
  %22 = getelementptr inbounds nuw %"struct.cv::ximgproc::DisparityWLSFilterImpl::ComputeDiscontinuityAwareLRC_ParBody", ptr %19, i32 0, i32 2
  %23 = load ptr, ptr %13, align 8, !tbaa !50
  store ptr %23, ptr %22, align 8, !tbaa !122
  %24 = getelementptr inbounds nuw %"struct.cv::ximgproc::DisparityWLSFilterImpl::ComputeDiscontinuityAwareLRC_ParBody", ptr %19, i32 0, i32 3
  %25 = load ptr, ptr %14, align 8, !tbaa !50
  store ptr %25, ptr %24, align 8, !tbaa !123
  %26 = getelementptr inbounds nuw %"struct.cv::ximgproc::DisparityWLSFilterImpl::ComputeDiscontinuityAwareLRC_ParBody", ptr %19, i32 0, i32 4
  %27 = load ptr, ptr %15, align 8, !tbaa !50
  store ptr %27, ptr %26, align 8, !tbaa !124
  %28 = getelementptr inbounds nuw %"struct.cv::ximgproc::DisparityWLSFilterImpl::ComputeDiscontinuityAwareLRC_ParBody", ptr %19, i32 0, i32 5
  %29 = load ptr, ptr %16, align 8, !tbaa !50
  store ptr %29, ptr %28, align 8, !tbaa !125
  %30 = getelementptr inbounds nuw %"struct.cv::ximgproc::DisparityWLSFilterImpl::ComputeDiscontinuityAwareLRC_ParBody", ptr %19, i32 0, i32 6
  %31 = load ptr, ptr %17, align 8, !tbaa !50
  store ptr %31, ptr %30, align 8, !tbaa !126
  %32 = getelementptr inbounds nuw %"struct.cv::ximgproc::DisparityWLSFilterImpl::ComputeDiscontinuityAwareLRC_ParBody", ptr %19, i32 0, i32 7
  call void @llvm.memcpy.p0.p0.i64(ptr align 8 %32, ptr align 8 %7, i64 16, i1 false), !tbaa.struct !33
  %33 = getelementptr inbounds nuw %"struct.cv::ximgproc::DisparityWLSFilterImpl::ComputeDiscontinuityAwareLRC_ParBody", ptr %19, i32 0, i32 8
  call void @llvm.memcpy.p0.p0.i64(ptr align 8 %33, ptr align 8 %8, i64 16, i1 false), !tbaa.struct !33
  %34 = getelementptr inbounds nuw %"struct.cv::ximgproc::DisparityWLSFilterImpl::ComputeDiscontinuityAwareLRC_ParBody", ptr %19, i32 0, i32 9
  %35 = load i32, ptr %18, align 4, !tbaa !12
  store i32 %35, ptr %34, align 8, !tbaa !127
  %36 = getelementptr inbounds nuw %"struct.cv::ximgproc::DisparityWLSFilterImpl::ComputeDiscontinuityAwareLRC_ParBody", ptr %19, i32 0, i32 2
  %37 = load ptr, ptr %36, align 8, !tbaa !122
  %38 = getelementptr inbounds nuw %"class.cv::Mat", ptr %37, i32 0, i32 2
  %39 = load i32, ptr %38, align 8, !tbaa !53
  %40 = sitofp i32 %39 to double
  %41 = getelementptr inbounds nuw %"struct.cv::ximgproc::DisparityWLSFilterImpl::ComputeDiscontinuityAwareLRC_ParBody", ptr %19, i32 0, i32 9
  %42 = load i32, ptr %41, align 8, !tbaa !127
  %43 = sitofp i32 %42 to double
  %44 = fdiv double %40, %43
  %45 = call double @llvm.ceil.f64(double %44)
  %46 = fptosi double %45 to i32
  %47 = getelementptr inbounds nuw %"struct.cv::ximgproc::DisparityWLSFilterImpl::ComputeDiscontinuityAwareLRC_ParBody", ptr %19, i32 0, i32 10
  store i32 %46, ptr %47, align 4, !tbaa !128
  ret void
}