; Function Attrs: mustprogress nofree norecurse nosync nounwind willreturn memory(argmem: readwrite) uwtable
define hidden void @_ZN2cv8ximgproc22DisparityWLSFilterImpl36ComputeDiscontinuityAwareLRC_ParBodyC2ERS1_RNS_3MatES5_S5_S5_S5_NS_5Rect_IiEES7_i(ptr noundef nonnull writeonly align 8 captures(none) dereferenceable(96) initializes((0, 96)) %0, ptr noundef nonnull align 8 dereferenceable(196) %1, ptr noundef nonnull align 8 dereferenceable(96) %2, ptr noundef nonnull align 8 dereferenceable(96) %3, ptr noundef nonnull align 8 dereferenceable(96) %4, ptr noundef nonnull align 8 dereferenceable(96) %5, ptr noundef nonnull align 8 dereferenceable(96) %6, ptr noundef readonly byval(%"class.cv::Rect_") align 8 captures(none) %7, ptr noundef readonly byval(%"class.cv::Rect_") align 8 captures(none) %8, i32 noundef %9) unnamed_addr #12 align 2 {
  store ptr getelementptr inbounds nuw inrange(-16, 24) (i8, ptr @_ZTVN2cv8ximgproc22DisparityWLSFilterImpl36ComputeDiscontinuityAwareLRC_ParBodyE, i64 16), ptr %0, align 8, !tbaa !52
  %11 = getelementptr inbounds nuw i8, ptr %0, i64 8
  store ptr %1, ptr %11, align 8, !tbaa !88
  %12 = getelementptr inbounds nuw i8, ptr %0, i64 16
  store ptr %2, ptr %12, align 8, !tbaa !90
  %13 = getelementptr inbounds nuw i8, ptr %0, i64 24
  store ptr %3, ptr %13, align 8, !tbaa !91
  %14 = getelementptr inbounds nuw i8, ptr %0, i64 32
  store ptr %4, ptr %14, align 8, !tbaa !92
  %15 = getelementptr inbounds nuw i8, ptr %0, i64 40
  store ptr %5, ptr %15, align 8, !tbaa !93
  %16 = getelementptr inbounds nuw i8, ptr %0, i64 48
  store ptr %6, ptr %16, align 8, !tbaa !94
  %17 = getelementptr inbounds nuw i8, ptr %0, i64 56
  call void @llvm.memcpy.p0.p0.i64(ptr noundef nonnull align 8 dereferenceable(16) %17, ptr noundef nonnull align 8 dereferenceable(16) %7, i64 16, i1 false), !tbaa.struct !130
  %18 = getelementptr inbounds nuw i8, ptr %0, i64 72
  call void @llvm.memcpy.p0.p0.i64(ptr noundef nonnull align 8 dereferenceable(16) %18, ptr noundef nonnull align 8 dereferenceable(16) %8, i64 16, i1 false), !tbaa.struct !130
  %19 = getelementptr inbounds nuw i8, ptr %0, i64 88
  store i32 %9, ptr %19, align 8, !tbaa !95
  %20 = getelementptr inbounds nuw i8, ptr %2, i64 8
  %21 = load i32, ptr %20, align 8, !tbaa !54
  %22 = sitofp i32 %21 to double
  %23 = sitofp i32 %9 to double
  %24 = fdiv double %22, %23
  %25 = tail call double @llvm.ceil.f64(double %24)
  %26 = fptosi double %25 to i32
  %27 = getelementptr inbounds nuw i8, ptr %0, i64 92
  store i32 %26, ptr %27, align 4, !tbaa !96
  ret void
}